target datalayout = "e-m:e-p270:32:32-p271:32:32-p272:64:64-i64:64-i128:128-f80:128-n8:16:32:64-S128"
target triple = "x86_64-pc-linux-gnu"

%"class.icu_77::UnicodeString" = type { %"class.icu_77::Replaceable", %"union.icu_77::UnicodeString::StackBufferOrFields" }
%"class.icu_77::Replaceable" = type { %"class.icu_77::UObject" }
%"class.icu_77::UObject" = type { ptr }
%"union.icu_77::UnicodeString::StackBufferOrFields" = type { %struct.anon.0, [32 x i8] }
%struct.anon.0 = type { i16, i32, i32, ptr }
%"class.icu_77::TimeZoneFormat" = type { %"class.icu_77::Format", %"class.icu_77::Locale", [4 x i8], ptr, ptr, %"class.icu_77::UnicodeString", [6 x %"class.icu_77::UnicodeString"], [10 x i32], %"class.icu_77::UnicodeString", i32, %"class.icu_77::UnicodeString", %"class.icu_77::UnicodeString", [6 x ptr], i8, ptr }
%"class.icu_77::Format" = type { %"class.icu_77::UObject", ptr, ptr }
%"class.icu_77::Locale" = type <{ %"class.icu_77::UObject", [12 x i8], [6 x i8], [4 x i8], [2 x i8], i32, [4 x i8], ptr, [157 x i8], [3 x i8], ptr, i8, [7 x i8] }>

; Function Attrs: mustprogress uwtable
define noundef signext i8 @_ZN6icu_7714TimeZoneFormat12toCodePointsERKNS_13UnicodeStringEPii(ptr noundef nonnull align 8 dereferenceable(64) %0, ptr noundef %1, i32 noundef %2) #1 align 2 {
  %4 = alloca i8, align 1
  %5 = alloca ptr, align 8
  %6 = alloca ptr, align 8
  %7 = alloca i32, align 4
  %8 = alloca i32, align 4
  %9 = alloca i32, align 4
  %10 = alloca i32, align 4
  %11 = alloca i32, align 4
  store ptr %0, ptr %5, align 8, !tbaa !33
  store ptr %1, ptr %6, align 8, !tbaa !20
  store i32 %2, ptr %7, align 4, !tbaa !14
  call void @llvm.lifetime.start.p0(i64 4, ptr %8) #15
  %12 = load ptr, ptr %5, align 8, !tbaa !33
  %13 = call noundef i32 @_ZNK6icu_7713UnicodeString11countChar32Eii(ptr noundef nonnull align 8 dereferenceable(64) %12, i32 noundef 0, i32 noundef 2147483647)
  store i32 %13, ptr %8, align 4, !tbaa !14
  %14 = load i32, ptr %8, align 4, !tbaa !14
  %15 = load i32, ptr %7, align 4, !tbaa !14
  %16 = icmp ne i32 %14, %15
  br i1 %16, label %17, label %18

17:                                               ; preds = %3
  store i8 0, ptr %4, align 1
  store i32 1, ptr %9, align 4
  br label %39

18:                                               ; preds = %3
  call void @llvm.lifetime.start.p0(i64 4, ptr %10) #15
  store i32 0, ptr %10, align 4, !tbaa !14
  call void @llvm.lifetime.start.p0(i64 4, ptr %11) #15
  store i32 0, ptr %11, align 4, !tbaa !14
  br label %19

19:                                               ; preds = %35, %18
  %20 = load i32, ptr %10, align 4, !tbaa !14
  %21 = load i32, ptr %7, align 4, !tbaa !14
  %22 = icmp slt i32 %20, %21
  br i1 %22, label %24, label %23

23:                                               ; preds = %19
  store i32 2, ptr %9, align 4
  call void @llvm.lifetime.end.p0(i64 4, ptr %11) #15
  call void @llvm.lifetime.end.p0(i64 4, ptr %10) #15
  br label %38

24:                                               ; preds = %19
  %25 = load ptr, ptr %5, align 8, !tbaa !33
  %26 = load i32, ptr %11, align 4, !tbaa !14
  %27 = call noundef i32 @_ZNK6icu_7713UnicodeString8char32AtEi(ptr noundef nonnull align 8 dereferenceable(64) %25, i32 noundef %26)
  %28 = load ptr, ptr %6, align 8, !tbaa !20
  %29 = load i32, ptr %10, align 4, !tbaa !14
  %30 = sext i32 %29 to i64
  %31 = getelementptr inbounds i32, ptr %28, i64 %30
  store i32 %27, ptr %31, align 4, !tbaa !14
  %32 = load ptr, ptr %5, align 8, !tbaa !33
  %33 = load i32, ptr %11, align 4, !tbaa !14
  %34 = call noundef i32 @_ZNK6icu_7713UnicodeString11moveIndex32Eii(ptr noundef nonnull align 8 dereferenceable(64) %32, i32 noundef %33, i32 noundef 1)
  store i32 %34, ptr %11, align 4, !tbaa !14
  br label %35

35:                                               ; preds = %24
  %36 = load i32, ptr %10, align 4, !tbaa !14
  %37 = add nsw i32 %36, 1
  store i32 %37, ptr %10, align 4, !tbaa !14
  br label %19, !llvm.loop !74

38:                                               ; preds = %23
  store i8 1, ptr %4, align 1
  store i32 1, ptr %9, align 4
  br label %39

39:                                               ; preds = %38, %17
  call void @llvm.lifetime.end.p0(i64 4, ptr %8) #15
  %40 = load i8, ptr %4, align 1
  ret i8 %40
}

; Function Attrs: inlinehint mustprogress nounwind uwtable
define internal noundef signext i8 @_ZL9U_FAILURE10UErrorCode(i32 noundef %0) #2 {
  %2 = alloca i32, align 4
  store i32 %0, ptr %2, align 4, !tbaa !15
  %3 = load i32, ptr %2, align 4, !tbaa !15
  %4 = icmp sgt i32 %3, 0
  %5 = zext i1 %4 to i8
  ret i8 %5
}

; Function Attrs: mustprogress uwtable
define void @_ZN6icu_7714TimeZoneFormat18setGMTOffsetDigitsERKNS_13UnicodeStringER10UErrorCode(ptr noundef nonnull align 8 dereferenceable(1024) %0, ptr noundef nonnull align 8 dereferenceable(64) %1, ptr noundef nonnull align 4 dereferenceable(4) %2) #1 align 2 {
  %4 = alloca ptr, align 8
  %5 = alloca ptr, align 8
  %6 = alloca ptr, align 8
  %7 = alloca [10 x i32], align 16
  %8 = alloca i32, align 4
  store ptr %0, ptr %4, align 8, !tbaa !39
  store ptr %1, ptr %5, align 8, !tbaa !33
  store ptr %2, ptr %6, align 8, !tbaa !22
  %9 = load ptr, ptr %4, align 8
  %10 = load ptr, ptr %6, align 8, !tbaa !22
  %11 = load i32, ptr %10, align 4, !tbaa !15
  %12 = call noundef signext i8 @_ZL9U_FAILURE10UErrorCode(i32 noundef %11)
  %13 = icmp ne i8 %12, 0
  br i1 %13, label %14, label %15

14:                                               ; preds = %3
  br label %31

15:                                               ; preds = %3
  call void @llvm.lifetime.start.p0(i64 40, ptr %7) #15
  %16 = load ptr, ptr %5, align 8, !tbaa !33
  %17 = getelementptr inbounds [10 x i32], ptr %7, i64 0, i64 0
  %18 = call noundef signext i8 @_ZN6icu_7714TimeZoneFormat12toCodePointsERKNS_13UnicodeStringEPii(ptr noundef nonnull align 8 dereferenceable(64) %16, ptr noundef %17, i32 noundef 10)
  %19 = icmp ne i8 %18, 0
  br i1 %19, label %22, label %20

20:                                               ; preds = %15
  %21 = load ptr, ptr %6, align 8, !tbaa !22
  store i32 1, ptr %21, align 4, !tbaa !15
  store i32 1, ptr %8, align 4
  br label %29

22:                                               ; preds = %15
  br label %23

23:                                               ; preds = %22
  %24 = getelementptr inbounds nuw %"class.icu_77::TimeZoneFormat", ptr %9, i32 0, i32 7
  %25 = getelementptr inbounds [10 x i32], ptr %24, i64 0, i64 0
  %26 = getelementptr inbounds [10 x i32], ptr %7, i64 0, i64 0
  call void @llvm.memcpy.p0.p0.i64(ptr align 8 %25, ptr align 16 %26, i64 40, i1 false)
  br label %27

27:                                               ; preds = %23
  br label %28

28:                                               ; preds = %27
  store i32 0, ptr %8, align 4
  br label %29

29:                                               ; preds = %28, %20
  call void @llvm.lifetime.end.p0(i64 40, ptr %7) #15
  %30 = load i32, ptr %8, align 4
  switch i32 %30, label %32 [
    i32 0, label %31
    i32 1, label %31
  ]

31:                                               ; preds = %14, %29, %29
  ret void

32:                                               ; preds = %29
  unreachable
}