; Function Attrs: mustprogress uwtable
define void @_ZN6icu_7714TimeZoneFormat18setGMTOffsetDigitsERKNS_13UnicodeStringER10UErrorCode(ptr noundef nonnull writeonly align 8 captures(none) dereferenceable(1024) %0, ptr noundef nonnull align 8 dereferenceable(64) %1, ptr noundef nonnull align 4 captures(none) dereferenceable(4) %2) local_unnamed_addr #1 align 2 {
  %4 = alloca [10 x i32], align 16
  %5 = load i32, ptr %2, align 4, !tbaa !13
  %6 = icmp slt i32 %5, 1
  br i1 %6, label %7, label %15

7:                                                ; preds = %3
  call void @llvm.lifetime.start.p0(i64 40, ptr nonnull %4) #22
  %8 = tail call noundef i32 @_ZNK6icu_7713UnicodeString11countChar32Eii(ptr noundef nonnull align 8 dereferenceable(64) %1, i32 noundef 0, i32 noundef 2147483647)
  %.not.i = icmp eq i32 %8, 10
  br i1 %.not.i, label %.lr.ph.i, label %12

.lr.ph.i:                                         ; preds = %7, %.lr.ph.i
  %indvars.iv.i = phi i64 [ %indvars.iv.next.i, %.lr.ph.i ], [ 0, %7 ]
  %.016.i = phi i32 [ %11, %.lr.ph.i ], [ 0, %7 ]
  %9 = tail call noundef i32 @_ZNK6icu_7713UnicodeString8char32AtEi(ptr noundef nonnull align 8 dereferenceable(64) %1, i32 noundef %.016.i)
  %10 = getelementptr inbounds nuw i32, ptr %4, i64 %indvars.iv.i
  store i32 %9, ptr %10, align 4, !tbaa !12
  %11 = tail call noundef i32 @_ZNK6icu_7713UnicodeString11moveIndex32Eii(ptr noundef nonnull align 8 dereferenceable(64) %1, i32 noundef %.016.i, i32 noundef 1)
  %indvars.iv.next.i = add nuw nsw i64 %indvars.iv.i, 1
  %exitcond.not.i = icmp eq i64 %indvars.iv.next.i, 10
  br i1 %exitcond.not.i, label %_ZN6icu_7714TimeZoneFormat12toCodePointsERKNS_13UnicodeStringEPii.exit, label %.lr.ph.i, !llvm.loop !53

12:                                               ; preds = %7
  store i32 1, ptr %2, align 4, !tbaa !13
  br label %14

_ZN6icu_7714TimeZoneFormat12toCodePointsERKNS_13UnicodeStringEPii.exit: ; preds = %.lr.ph.i
  %13 = getelementptr inbounds nuw i8, ptr %0, i64 720
  call void @llvm.memcpy.p0.p0.i64(ptr noundef nonnull align 8 dereferenceable(40) %13, ptr noundef nonnull align 16 dereferenceable(40) %4, i64 40, i1 false)
  br label %14

14:                                               ; preds = %_ZN6icu_7714TimeZoneFormat12toCodePointsERKNS_13UnicodeStringEPii.exit, %12
  call void @llvm.lifetime.end.p0(i64 40, ptr nonnull %4) #22
  br label %15

15:                                               ; preds = %3, %14
  ret void
}